; ModuleID = '30/3340.c'
source_filename = "30/3340.c"
target datalayout = "e-m:e-p270:32:32-p271:32:32-p272:64:64-i64:64-f80:128-n8:16:32:64-S128"
target triple = "x86_64-pc-linux-gnu"

@.str = private unnamed_addr constant [3 x i8] c"%d\00", align 1

; Function Attrs: noinline nounwind uwtable
define dso_local i32 @main() #0 {
  %1 = alloca i32, align 4
  %2 = alloca i32, align 4
  %3 = alloca i32, align 4
  %4 = alloca i32, align 4
  %5 = alloca i32, align 4
  %6 = alloca i32, align 4
  store i32 0, i32* %1, align 4
  store i32 0, i32* %2, align 4
  store i32 1, i32* %3, align 4
  %7 = call i32 (i8*, ...) @__isoc99_scanf(i8* getelementptr inbounds ([3 x i8], [3 x i8]* @.str, i64 0, i64 0), i32* %4)
  br label %8

8:                                                ; preds = %39, %36, %0
  %9 = load i32, i32* %3, align 4
  %10 = load i32, i32* %4, align 4
  %11 = icmp sle i32 %9, %10
  br i1 %11, label %12, label %47

12:                                               ; preds = %8
  %13 = load i32, i32* %3, align 4
  %14 = sdiv i32 %13, 10
  store i32 %14, i32* %5, align 4
  %15 = load i32, i32* %3, align 4
  %16 = sdiv i32 %15, 100
  store i32 %16, i32* %6, align 4
  %17 = load i32, i32* %3, align 4
  %18 = srem i32 %17, 7
  %19 = icmp eq i32 %18, 0
  br i1 %19, label %36, label %20

20:                                               ; preds = %12
  %21 = load i32, i32* %3, align 4
  %22 = load i32, i32* %5, align 4
  %23 = mul nsw i32 10, %22
  %24 = add nsw i32 %23, 7
  %25 = icmp eq i32 %21, %24
  br i1 %25, label %36, label %26

26:                                               ; preds = %20
  %27 = load i32, i32* %5, align 4
  %28 = icmp eq i32 %27, 7
  br i1 %28, label %36, label %29

29:                                               ; preds = %26
  %30 = load i32, i32* %3, align 4
  %31 = load i32, i32* %6, align 4
  %32 = mul nsw i32 100, %31
  %33 = sub nsw i32 %30, %32
  %34 = sdiv i32 %33, 10
  %35 = icmp eq i32 %34, 7
  br i1 %35, label %36, label %39

36:                                               ; preds = %29, %26, %20, %12
  %37 = load i32, i32* %3, align 4
  %38 = add nsw i32 %37, 1
  store i32 %38, i32* %3, align 4
  br label %8

39:                                               ; preds = %29
  %40 = load i32, i32* %2, align 4
  %41 = load i32, i32* %3, align 4
  %42 = load i32, i32* %3, align 4
  %43 = mul nsw i32 %41, %42
  %44 = add nsw i32 %40, %43
  store i32 %44, i32* %2, align 4
  %45 = load i32, i32* %3, align 4
  %46 = add nsw i32 %45, 1
  store i32 %46, i32* %3, align 4
  br label %8

47:                                               ; preds = %8
  %48 = load i32, i32* %2, align 4
  %49 = call i32 (i8*, ...) @printf(i8* getelementptr inbounds ([3 x i8], [3 x i8]* @.str, i64 0, i64 0), i32 %48)
  ret i32 0
}

declare dso_local i32 @__isoc99_scanf(i8*, ...) #1

declare dso_local i32 @printf(i8*, ...) #1


!llvm.module.flags = !{!0}
!llvm.ident = !{!1}

!0 = !{i32 1, !"wchar_size", i32 4}
!1 = !{!"clang version 10.0.0-4ubuntu1 "}
